; Function Attrs: mustprogress nofree norecurse nosync nounwind willreturn memory(read, inaccessiblemem: none) uwtable
define hidden noundef i64 @_ZN6hermes2vm12JSTypedArrayImLNS0_8CellKindE45EE10toDestTypeERKNS0_11HermesValueE(ptr noundef nonnull readonly align 8 captures(none) dereferenceable(8) %numeric) local_unnamed_addr #2 align 2 {
entry:
  %0 = load i64, ptr %numeric, align 8
  %and.i.i = and i64 %0, 281474976710655
  %1 = inttoptr i64 %and.i.i to ptr
  %numDigits.i = getelementptr inbounds nuw i8, ptr %1, i64 4
  %2 = load i32, ptr %numDigits.i, align 4
  %cmp = icmp eq i32 %2, 0
  br i1 %cmp, label %cond.end, label %cond.false

cond.false:                                       ; preds = %entry
  %add.ptr.i.i.i = getelementptr inbounds nuw i8, ptr %1, i64 8
  %3 = load i64, ptr %add.ptr.i.i.i, align 8
  br label %cond.end

cond.end:                                         ; preds = %entry, %cond.false
  %cond = phi i64 [ %3, %cond.false ], [ 0, %entry ]
  ret i64 %cond
}